(dp0
S'TWILIO_PHONE'
p1
S'+19378136218'
p2
sS'AUTH_TOKEN'
p3
S'023179d83a40e97ceab3f2365b67064e'
p4
sS'RECEIVER_PHONE'
p5
S'+19378251117'
p6
sS'ACCOUNT_SID'
p7
S'AC9250af5bb8a1d7207c849fd8cc8c656b'
p8
s.